target datalayout = "e-m:e-p270:32:32-p271:32:32-p272:64:64-i64:64-i128:128-f80:128-n8:16:32:64-S128"
target triple = "x86_64-pc-linux-gnu"

%struct.reassembly_table = type { ptr, ptr, ptr, ptr, ptr }
%struct.reassembly_table_functions = type { ptr, ptr, ptr, ptr, ptr, ptr }

@proto_register_hci_usb.ett = internal global [3 x ptr] [ptr @ett_hci_usb, ptr @ett_hci_usb_msg_fragment, ptr @ett_hci_usb_msg_fragments], align 16
@hci_usb_reassembly_table = internal global %struct.reassembly_table zeroinitializer, align 8
@addresses_reassembly_table_functions = external constant %struct.reassembly_table_functions, align 8
@fragment_info_table = internal global ptr null, align 8
@.str.36 = private unnamed_addr constant [28 x i8] c"Bluetooth HCI USB Transport\00", align 1
@.str.37 = private unnamed_addr constant [8 x i8] c"HCI_USB\00", align 1
@.str.38 = private unnamed_addr constant [8 x i8] c"hci_usb\00", align 1
@proto_hci_usb = internal global i32 0, align 4
@hci_usb_handle = internal global ptr null, align 8
@.str.39 = private unnamed_addr constant [10 x i8] c"Bluetooth\00", align 1
@.str.40 = private unnamed_addr constant [18 x i8] c"bthci_usb.version\00", align 1
@.str.41 = private unnamed_addr constant [42 x i8] c"Bluetooth HCI USB Transport from Core 4.0\00", align 1
@.str.42 = private unnamed_addr constant [49 x i8] c"Version of protocol supported by this dissector.\00", align 1

; Function Attrs: null_pointer_is_valid sspstrong uwtable
define hidden void @proto_register_hci_usb() #0 {
  %1 = alloca ptr, align 8
  call void @llvm.lifetime.start.p0(i64 8, ptr %1) #6
  call void @reassembly_table_register(ptr noundef @hci_usb_reassembly_table, ptr noundef @addresses_reassembly_table_functions)
  %2 = call ptr @wmem_epan_scope()
  %3 = call ptr @wmem_file_scope()
  %4 = call noalias ptr @wmem_tree_new_autoreset(ptr noundef %2, ptr noundef %3)
  store ptr %4, ptr @fragment_info_table, align 8
  %5 = call i32 @proto_register_protocol(ptr noundef @.str.36, ptr noundef @.str.37, ptr noundef @.str.38)
  store i32 %5, ptr @proto_hci_usb, align 4
  %6 = load i32, ptr @proto_hci_usb, align 4
  call void @proto_register_field_array(i32 noundef %6, ptr noundef @proto_register_hci_usb.hf, i32 noundef 18)
  call void @proto_register_subtree_array(ptr noundef @proto_register_hci_usb.ett, i32 noundef 3)
  %7 = load i32, ptr @proto_hci_usb, align 4
  %8 = call ptr @register_dissector(ptr noundef @.str.38, ptr noundef @dissect_hci_usb, i32 noundef %7)
  store ptr %8, ptr @hci_usb_handle, align 8
  %9 = load i32, ptr @proto_hci_usb, align 4
  %10 = call ptr @prefs_register_protocol_subtree(ptr noundef @.str.39, i32 noundef %9, ptr noundef null)
  store ptr %10, ptr %1, align 8
  %11 = load ptr, ptr %1, align 8
  call void @prefs_register_static_text_preference(ptr noundef %11, ptr noundef @.str.40, ptr noundef @.str.41, ptr noundef @.str.42)
  call void @llvm.lifetime.end.p0(i64 8, ptr %1) #6
  ret void
}