; Function Attrs: null_pointer_is_valid sspstrong uwtable
define hidden void @proto_register_hci_usb() local_unnamed_addr #0 {
  tail call void @reassembly_table_register(ptr noundef nonnull @hci_usb_reassembly_table, ptr noundef nonnull @addresses_reassembly_table_functions)
  %1 = tail call ptr @wmem_epan_scope()
  %2 = tail call ptr @wmem_file_scope()
  %3 = tail call noalias ptr @wmem_tree_new_autoreset(ptr noundef %1, ptr noundef %2)
  store ptr %3, ptr @fragment_info_table, align 8
  %4 = tail call i32 @proto_register_protocol(ptr noundef nonnull @.str.36, ptr noundef nonnull @.str.37, ptr noundef nonnull @.str.38)
  store i32 %4, ptr @proto_hci_usb, align 4
  tail call void @proto_register_field_array(i32 noundef %4, ptr noundef nonnull @proto_register_hci_usb.hf, i32 noundef 18)
  tail call void @proto_register_subtree_array(ptr noundef nonnull @proto_register_hci_usb.ett, i32 noundef 3)
  %5 = load i32, ptr @proto_hci_usb, align 4
  %6 = tail call ptr @register_dissector(ptr noundef nonnull @.str.38, ptr noundef nonnull @dissect_hci_usb, i32 noundef %5)
  store ptr %6, ptr @hci_usb_handle, align 8
  %7 = load i32, ptr @proto_hci_usb, align 4
  %8 = tail call ptr @prefs_register_protocol_subtree(ptr noundef nonnull @.str.39, i32 noundef %7, ptr noundef null)
  tail call void @prefs_register_static_text_preference(ptr noundef %8, ptr noundef nonnull @.str.40, ptr noundef nonnull @.str.41, ptr noundef nonnull @.str.42)
  ret void
}